target datalayout = "e-m:e-p270:32:32-p271:32:32-p272:64:64-i64:64-i128:128-f80:128-n8:16:32:64-S128"
target triple = "x86_64-unknown-linux-gnu"

%class.rewriter_core = type { ptr, ptr, i8, i8, %class.ptr_vector, ptr, %class.svector.1, %class.ref_vector, %class.ptr_vector, ptr, %class.ref_vector.5, %class.obj_hashtable, ptr, i32, %class.svector.10 }
%class.svector.1 = type { %class.vector.2 }
%class.vector.2 = type { ptr }
%class.ref_vector = type { %class.ref_vector_core }
%class.ref_vector_core = type { %class.ref_manager_wrapper, %class.ptr_vector.3 }
%class.ref_manager_wrapper = type { ptr }
%class.ptr_vector.3 = type { %class.vector.4 }
%class.vector.4 = type { ptr }
%class.ptr_vector = type { %class.vector.0 }
%class.vector.0 = type { ptr }
%class.ref_vector.5 = type { %class.ref_vector_core.6 }
%class.ref_vector_core.6 = type { %class.ref_manager_wrapper.7, %class.ptr_vector.8 }
%class.ref_manager_wrapper.7 = type { ptr }
%class.ptr_vector.8 = type { %class.vector.9 }
%class.vector.9 = type { ptr }
%class.obj_hashtable = type { %class.core_hashtable.base, [4 x i8] }
%class.core_hashtable.base = type <{ ptr, i32, i32, i32 }>
%class.svector.10 = type { %class.vector.11 }
%class.vector.11 = type { ptr }

; Function Attrs: mustprogress uwtable
define linkonce_odr hidden void @_ZN9act_cache6insertEP4exprS1_(ptr noundef nonnull align 8 dereferenceable(92) %this, ptr noundef %k, ptr noundef %v) #4 comdat align 2 {
entry:
  %this.addr = alloca ptr, align 8
  %k.addr = alloca ptr, align 8
  %v.addr = alloca ptr, align 8
  store ptr %this, ptr %this.addr, align 8
  store ptr %k, ptr %k.addr, align 8
  store ptr %v, ptr %v.addr, align 8
  %this1 = load ptr, ptr %this.addr, align 8
  %0 = load ptr, ptr %k.addr, align 8
  %1 = load ptr, ptr %v.addr, align 8
  call void @_ZN9act_cache6insertEP4exprjS1_(ptr noundef nonnull align 8 dereferenceable(92) %this1, ptr noundef %0, i32 noundef 0, ptr noundef %1)
  ret void
}

; Function Attrs: mustprogress uwtable
define hidden void @_ZN13rewriter_core12cache_resultEP4exprS1_P3app(ptr noundef nonnull align 8 dereferenceable(144) %this, ptr noundef %k, ptr noundef %v, ptr noundef %pr) #4 align 2 {
entry:
  %this.addr = alloca ptr, align 8
  %k.addr = alloca ptr, align 8
  %v.addr = alloca ptr, align 8
  %pr.addr = alloca ptr, align 8
  store ptr %this, ptr %this.addr, align 8
  store ptr %k, ptr %k.addr, align 8
  store ptr %v, ptr %v.addr, align 8
  store ptr %pr, ptr %pr.addr, align 8
  %this1 = load ptr, ptr %this.addr, align 8
  %m_cache = getelementptr inbounds %class.rewriter_core, ptr %this1, i32 0, i32 5
  %0 = load ptr, ptr %m_cache, align 8
  %1 = load ptr, ptr %k.addr, align 8
  %2 = load ptr, ptr %v.addr, align 8
  call void @_ZN9act_cache6insertEP4exprS1_(ptr noundef nonnull align 8 dereferenceable(92) %0, ptr noundef %1, ptr noundef %2)
  %m_cache_pr = getelementptr inbounds %class.rewriter_core, ptr %this1, i32 0, i32 9
  %3 = load ptr, ptr %m_cache_pr, align 8
  %4 = load ptr, ptr %k.addr, align 8
  %5 = load ptr, ptr %pr.addr, align 8
  call void @_ZN9act_cache6insertEP4exprS1_(ptr noundef nonnull align 8 dereferenceable(92) %3, ptr noundef %4, ptr noundef %5)
  ret void
}