; Function Attrs: mustprogress uwtable
define hidden void @_ZN13rewriter_core12cache_resultEP4exprS1_P3app(ptr nocapture noundef nonnull readonly align 8 dereferenceable(144) %this, ptr noundef %k, ptr noundef %v, ptr noundef %pr) local_unnamed_addr #3 align 2 {
entry:
  %m_cache = getelementptr inbounds i8, ptr %this, i64 32
  %0 = load ptr, ptr %m_cache, align 8
  tail call void @_ZN9act_cache6insertEP4exprjS1_(ptr noundef nonnull align 8 dereferenceable(92) %0, ptr noundef %k, i32 noundef 0, ptr noundef %v)
  %m_cache_pr = getelementptr inbounds i8, ptr %this, i64 72
  %1 = load ptr, ptr %m_cache_pr, align 8
  tail call void @_ZN9act_cache6insertEP4exprjS1_(ptr noundef nonnull align 8 dereferenceable(92) %1, ptr noundef %k, i32 noundef 0, ptr noundef %pr)
  ret void
}